; Function Attrs: nounwind uwtable
define i64 @H5Pget_buffer(i64 noundef %0, ptr noundef %1, ptr noundef %2) local_unnamed_addr #0 {
  %4 = alloca i64, align 8
  %5 = load i8, ptr @H5_libinit_g, align 1
  %6 = trunc i8 %5 to i1
  %7 = load i8, ptr @H5_libterm_g, align 1
  %8 = trunc i8 %7 to i1
  %9 = select i1 %6, i1 true, i1 %8
  br i1 %9, label %17, label %10

10:                                               ; preds = %3
  %11 = tail call i32 @H5_init_library() #8
  %12 = icmp slt i32 %11, 0
  br i1 %12, label %13, label %17

13:                                               ; preds = %10
  %14 = load i64, ptr @H5E_FUNC_g, align 8
  %15 = load i64, ptr @H5E_CANTINIT_g, align 8
  %16 = tail call i32 (ptr, ptr, i32, i64, i64, ptr, ...) @H5E_printf_stack(ptr noundef nonnull @.str.1, ptr noundef nonnull @__func__.H5Pget_buffer, i32 noundef 1126, i64 noundef %14, i64 noundef %15, ptr noundef nonnull @.str.2) #8
  br label %.thread30

17:                                               ; preds = %10, %3
  %18 = tail call i32 @H5CX_push() #8
  %19 = icmp slt i32 %18, 0
  br i1 %19, label %20, label %24

20:                                               ; preds = %17
  %21 = load i64, ptr @H5E_FUNC_g, align 8
  %22 = load i64, ptr @H5E_CANTSET_g, align 8
  %23 = tail call i32 (ptr, ptr, i32, i64, i64, ptr, ...) @H5E_printf_stack(ptr noundef nonnull @.str.1, ptr noundef nonnull @__func__.H5Pget_buffer, i32 noundef 1126, i64 noundef %21, i64 noundef %22, ptr noundef nonnull @.str.3) #8
  br label %.thread30

24:                                               ; preds = %17
  %25 = tail call i32 @H5E_clear_stack() #8
  %26 = load i64, ptr @H5P_CLS_DATASET_XFER_ID_g, align 8
  %27 = tail call ptr @H5P_object_verify(i64 noundef %0, i64 noundef %26) #8
  %28 = icmp eq ptr %27, null
  br i1 %28, label %29, label %33

29:                                               ; preds = %24
  %30 = load i64, ptr @H5E_ID_g, align 8
  %31 = load i64, ptr @H5E_BADID_g, align 8
  %32 = tail call i32 (ptr, ptr, i32, i64, i64, ptr, ...) @H5E_printf_stack(ptr noundef nonnull @.str.1, ptr noundef nonnull @__func__.H5Pget_buffer, i32 noundef 1130, i64 noundef %30, i64 noundef %31, ptr noundef nonnull @.str.5) #8
  br label %.thread36

33:                                               ; preds = %24
  %.not = icmp eq ptr %1, null
  br i1 %.not, label %41, label %34

34:                                               ; preds = %33
  %35 = tail call i32 @H5P_get(ptr noundef nonnull %27, ptr noundef nonnull @.str.16, ptr noundef nonnull %1) #8
  %36 = icmp slt i32 %35, 0
  br i1 %36, label %37, label %41

37:                                               ; preds = %34
  %38 = load i64, ptr @H5E_PLIST_g, align 8
  %39 = load i64, ptr @H5E_CANTGET_g, align 8
  %40 = tail call i32 (ptr, ptr, i32, i64, i64, ptr, ...) @H5E_printf_stack(ptr noundef nonnull @.str.1, ptr noundef nonnull @__func__.H5Pget_buffer, i32 noundef 1135, i64 noundef %38, i64 noundef %39, ptr noundef nonnull @.str.20) #8
  br label %.thread36

41:                                               ; preds = %34, %33
  %.not21 = icmp eq ptr %2, null
  br i1 %.not21, label %49, label %42

42:                                               ; preds = %41
  %43 = tail call i32 @H5P_get(ptr noundef nonnull %27, ptr noundef nonnull @.str.18, ptr noundef nonnull %2) #8
  %44 = icmp slt i32 %43, 0
  br i1 %44, label %45, label %49

45:                                               ; preds = %42
  %46 = load i64, ptr @H5E_PLIST_g, align 8
  %47 = load i64, ptr @H5E_CANTGET_g, align 8
  %48 = tail call i32 (ptr, ptr, i32, i64, i64, ptr, ...) @H5E_printf_stack(ptr noundef nonnull @.str.1, ptr noundef nonnull @__func__.H5Pget_buffer, i32 noundef 1138, i64 noundef %46, i64 noundef %47, ptr noundef nonnull @.str.21) #8
  br label %.thread36

49:                                               ; preds = %42, %41
  %50 = call i32 @H5P_get(ptr noundef nonnull %27, ptr noundef nonnull @.str.14, ptr noundef nonnull %4) #8
  %51 = icmp slt i32 %50, 0
  br i1 %51, label %52, label %57

52:                                               ; preds = %49
  %53 = load i64, ptr @H5E_PLIST_g, align 8
  %54 = load i64, ptr @H5E_CANTSET_g, align 8
  %55 = call i32 (ptr, ptr, i32, i64, i64, ptr, ...) @H5E_printf_stack(ptr noundef nonnull @.str.1, ptr noundef nonnull @__func__.H5Pget_buffer, i32 noundef 1142, i64 noundef %53, i64 noundef %54, ptr noundef nonnull @.str.15) #8
  br label %.thread36

.thread36:                                        ; preds = %52, %45, %37, %29
  %56 = call i32 @H5CX_pop(i1 noundef zeroext true) #8
  br label %.thread30

57:                                               ; preds = %49
  %58 = load i64, ptr %4, align 8
  %59 = call i32 @H5CX_pop(i1 noundef zeroext true) #8
  br label %61

.thread30:                                        ; preds = %20, %13, %.thread36
  %60 = call i32 @H5E_dump_api_stack() #8
  br label %61

61:                                               ; preds = %57, %.thread30
  %.0172533 = phi i64 [ 0, %.thread30 ], [ %58, %57 ]
  ret i64 %.0172533
}